; ModuleID = 'source-C-CXX/21/18.c'
source_filename = "source-C-CXX/21/18.c"
target datalayout = "e-m:e-p270:32:32-p271:32:32-p272:64:64-i64:64-f80:128-n8:16:32:64-S128"
target triple = "x86_64-pc-linux-gnu"

@.str = private unnamed_addr constant [3 x i8] c"%d\00", align 1
@.str.1 = private unnamed_addr constant [4 x i8] c",%d\00", align 1
@.str.2 = private unnamed_addr constant [3 x i8] c"No\00", align 1

; Function Attrs: nofree nounwind sspstrong uwtable
define dso_local void @main() local_unnamed_addr #0 {
  %1 = alloca i32, align 4
  %2 = alloca [65536 x i32], align 16
  %3 = bitcast i32* %1 to i8*
  call void @llvm.lifetime.start.p0i8(i64 4, i8* nonnull %3) #4
  %4 = bitcast [65536 x i32]* %2 to i8*
  call void @llvm.lifetime.start.p0i8(i64 262144, i8* nonnull %4) #4
  call void @llvm.memset.p0i8.i64(i8* noundef nonnull align 16 dereferenceable(262144) %4, i8 0, i64 262144, i1 false)
  %5 = call i32 (i8*, ...) @__isoc99_scanf(i8* getelementptr inbounds ([3 x i8], [3 x i8]* @.str, i64 0, i64 0), i32* nonnull %1)
  %6 = load i32, i32* %1, align 4, !tbaa !5
  %7 = sext i32 %6 to i64
  %8 = getelementptr inbounds [65536 x i32], [65536 x i32]* %2, i64 0, i64 %7
  %9 = load i32, i32* %8, align 4, !tbaa !5
  %10 = add nsw i32 %9, 1
  store i32 %10, i32* %8, align 4, !tbaa !5
  %11 = call i32 (i8*, ...) @__isoc99_scanf(i8* getelementptr inbounds ([4 x i8], [4 x i8]* @.str.1, i64 0, i64 0), i32* nonnull %1)
  %12 = icmp eq i32 %11, 0
  br i1 %12, label %21, label %13

13:                                               ; preds = %0, %13
  %14 = load i32, i32* %1, align 4, !tbaa !5
  %15 = sext i32 %14 to i64
  %16 = getelementptr inbounds [65536 x i32], [65536 x i32]* %2, i64 0, i64 %15
  %17 = load i32, i32* %16, align 4, !tbaa !5
  %18 = add nsw i32 %17, 1
  store i32 %18, i32* %16, align 4, !tbaa !5
  %19 = call i32 (i8*, ...) @__isoc99_scanf(i8* getelementptr inbounds ([4 x i8], [4 x i8]* @.str.1, i64 0, i64 0), i32* nonnull %1)
  %20 = icmp eq i32 %19, 0
  br i1 %20, label %21, label %13, !llvm.loop !9

21:                                               ; preds = %13, %0
  br label %22

22:                                               ; preds = %47, %21
  %23 = phi i32 [ 0, %21 ], [ %39, %47 ]
  %24 = phi i32 [ 65535, %21 ], [ %48, %47 ]
  %25 = zext i32 %24 to i64
  %26 = getelementptr inbounds [65536 x i32], [65536 x i32]* %2, i64 0, i64 %25
  %27 = load i32, i32* %26, align 4, !tbaa !5
  %28 = icmp ne i32 %27, 0
  %29 = zext i1 %28 to i32
  %30 = add nuw nsw i32 %23, %29
  %31 = icmp eq i32 %30, 2
  br i1 %31, label %41, label %32

32:                                               ; preds = %22
  %33 = add nsw i32 %24, -1
  %34 = zext i32 %33 to i64
  %35 = getelementptr inbounds [65536 x i32], [65536 x i32]* %2, i64 0, i64 %34
  %36 = load i32, i32* %35, align 4, !tbaa !5
  %37 = icmp ne i32 %36, 0
  %38 = zext i1 %37 to i32
  %39 = add nuw nsw i32 %30, %38
  %40 = icmp eq i32 %39, 2
  br i1 %40, label %41, label %47

41:                                               ; preds = %32, %22
  %42 = phi i32 [ %24, %22 ], [ %33, %32 ]
  %43 = call i32 (i8*, ...) @printf(i8* nonnull dereferenceable(1) getelementptr inbounds ([3 x i8], [3 x i8]* @.str, i64 0, i64 0), i32 %42)
  br label %46

44:                                               ; preds = %47
  %45 = call i32 (i8*, ...) @printf(i8* nonnull dereferenceable(1) getelementptr inbounds ([3 x i8], [3 x i8]* @.str.2, i64 0, i64 0))
  br label %46

46:                                               ; preds = %44, %41
  call void @llvm.lifetime.end.p0i8(i64 262144, i8* nonnull %4) #4
  call void @llvm.lifetime.end.p0i8(i64 4, i8* nonnull %3) #4
  ret void

47:                                               ; preds = %32
  %48 = add nsw i32 %24, -2
  %49 = icmp eq i32 %33, 0
  br i1 %49, label %44, label %22, !llvm.loop !11
}

; Function Attrs: argmemonly mustprogress nofree nosync nounwind willreturn
declare void @llvm.lifetime.start.p0i8(i64 immarg, i8* nocapture) #1

; Function Attrs: argmemonly mustprogress nofree nounwind willreturn writeonly
declare void @llvm.memset.p0i8.i64(i8* nocapture writeonly, i8, i64, i1 immarg) #2

; Function Attrs: nofree nounwind
declare noundef i32 @__isoc99_scanf(i8* nocapture noundef readonly, ...) local_unnamed_addr #3

; Function Attrs: nofree nounwind
declare noundef i32 @printf(i8* nocapture noundef readonly, ...) local_unnamed_addr #3

; Function Attrs: argmemonly mustprogress nofree nosync nounwind willreturn
declare void @llvm.lifetime.end.p0i8(i64 immarg, i8* nocapture) #1


!llvm.module.flags = !{!0, !1, !2, !3}
!llvm.ident = !{!4}

!0 = !{i32 1, !"wchar_size", i32 4}
!1 = !{i32 7, !"PIC Level", i32 2}
!2 = !{i32 7, !"PIE Level", i32 2}
!3 = !{i32 7, !"uwtable", i32 1}
!4 = !{!"clang version 13.0.0"}
!5 = !{!6, !6, i64 0}
!6 = !{!"int", !7, i64 0}
!7 = !{!"omnipotent char", !8, i64 0}
!8 = !{!"Simple C/C++ TBAA"}
!9 = distinct !{!9, !10}
!10 = !{!"llvm.loop.mustprogress"}
!11 = distinct !{!11, !10}
